target datalayout = "e-m:e-p270:32:32-p271:32:32-p272:64:64-i64:64-i128:128-f80:128-n8:16:32:64-S128"
target triple = "x86_64-pc-linux-gnu"

%"class.clang::TypeLoc" = type { ptr, ptr }
%"class.clang::UnqualTypeLoc" = type { %"class.clang::TypeLoc" }
%"class.clang::HLSLAttributedResourceTypeLoc" = type { %"class.clang::ConcreteTypeLoc.370" }
%"class.clang::ConcreteTypeLoc.370" = type { %"class.clang::UnqualTypeLoc" }
%"class.clang::QualType" = type { %"class.llvm::PointerIntPair" }
%"class.llvm::PointerIntPair" = type { %"struct.llvm::detail::PunnedPointer" }
%"struct.llvm::detail::PunnedPointer" = type { [8 x i8] }
%"class.clang::ExtQualsTypeCommonBase" = type { ptr, %"class.clang::QualType" }
%union.anon.410 = type { %"class.clang::Type::FunctionTypeBitfields" }
%"class.clang::Type::FunctionTypeBitfields" = type { i64 }
%"class.clang::Type.base" = type { %"class.clang::ExtQualsTypeCommonBase", %union.anon.410 }
%"class.llvm::FoldingSetBase::Node" = type { ptr }
%"class.clang::HLSLAttributedResourceType" = type <{ %"class.clang::Type.base", %"class.llvm::FoldingSetBase::Node", %"class.clang::QualType", %"class.clang::QualType", %"struct.clang::HLSLAttributedResourceType::Attributes", [14 x i8] }>
%"struct.clang::HLSLAttributedResourceType::Attributes" = type { i8, i8 }

; Function Attrs: mustprogress nounwind uwtable
define linkonce_odr hidden noundef i64 @_ZNK4llvm6detail13PunnedPointerINS_12PointerUnionIJPKN5clang4TypeEPKNS3_8ExtQualsEEEEE5asIntEv(ptr noundef nonnull align 8 dereferenceable(8) %0) #0 comdat align 2 {
  %2 = alloca ptr, align 8
  %3 = alloca i64, align 8
  store ptr %0, ptr %2, align 8
  %4 = load ptr, ptr %2, align 8
  store i64 0, ptr %3, align 8
  %5 = getelementptr inbounds nuw %"struct.llvm::detail::PunnedPointer", ptr %4, i32 0, i32 0
  %6 = getelementptr inbounds [8 x i8], ptr %5, i64 0, i64 0
  call void @llvm.memcpy.p0.p0.i64(ptr align 8 %3, ptr align 8 %6, i64 8, i1 false)
  %7 = load i64, ptr %3, align 8
  ret i64 %7
}

; Function Attrs: mustprogress nounwind uwtable
define linkonce_odr hidden noundef i32 @_ZN4llvm10divideCeilIjjjEET1_T_T0_(i32 noundef %0, i32 noundef %1) #0 comdat {
  %3 = alloca i32, align 4
  %4 = alloca i32, align 4
  %5 = alloca i32, align 4
  store i32 %0, ptr %3, align 4
  store i32 %1, ptr %4, align 4
  %6 = load i32, ptr %3, align 4
  %7 = icmp ne i32 %6, 0
  %8 = zext i1 %7 to i32
  store i32 %8, ptr %5, align 4
  %9 = load i32, ptr %3, align 4
  %10 = load i32, ptr %5, align 4
  %11 = sub i32 %9, %10
  %12 = load i32, ptr %4, align 4
  %13 = udiv i32 %11, %12
  %14 = load i32, ptr %5, align 4
  %15 = add i32 %13, %14
  ret i32 %15
}

; Function Attrs: mustprogress nounwind uwtable
define linkonce_odr hidden noundef ptr @_ZN4llvm16cast_convert_valIN5clang26HLSLAttributedResourceTypeEPKNS1_4TypeES5_E4doitES5_(ptr noundef %0) #0 comdat align 2 {
  %2 = alloca ptr, align 8
  store ptr %0, ptr %2, align 8
  %3 = load ptr, ptr %2, align 8
  ret ptr %3
}

; Function Attrs: mustprogress nounwind uwtable
define linkonce_odr hidden noundef ptr @_ZNK4llvm14PointerIntPairINS_12PointerUnionIJPKN5clang4TypeEPKNS2_8ExtQualsEEEELj3EjNS_21PointerLikeTypeTraitsIS9_EENS_18PointerIntPairInfoIS9_Lj3ESB_EEE14getOpaqueValueEv(ptr noundef nonnull align 8 dereferenceable(8) %0) #0 comdat align 2 {
  %2 = alloca ptr, align 8
  store ptr %0, ptr %2, align 8
  %3 = load ptr, ptr %2, align 8
  %4 = getelementptr inbounds nuw %"class.llvm::PointerIntPair", ptr %3, i32 0, i32 0
  %5 = call noundef i64 @_ZNK4llvm6detail13PunnedPointerINS_12PointerUnionIJPKN5clang4TypeEPKNS3_8ExtQualsEEEEE5asIntEv(ptr noundef nonnull align 8 dereferenceable(8) %4)
  %6 = inttoptr i64 %5 to ptr
  ret ptr %6
}

; Function Attrs: mustprogress nounwind uwtable
define linkonce_odr hidden noundef i64 @_ZN4llvm10divideCeilImjmEET1_T_T0_(i64 noundef %0, i32 noundef %1) #0 comdat {
  %3 = alloca i64, align 8
  %4 = alloca i32, align 4
  %5 = alloca i64, align 8
  store i64 %0, ptr %3, align 8
  store i32 %1, ptr %4, align 4
  %6 = load i64, ptr %3, align 8
  %7 = icmp ne i64 %6, 0
  %8 = zext i1 %7 to i64
  store i64 %8, ptr %5, align 8
  %9 = load i64, ptr %3, align 8
  %10 = load i64, ptr %5, align 8
  %11 = sub i64 %9, %10
  %12 = load i32, ptr %4, align 4
  %13 = zext i32 %12 to i64
  %14 = udiv i64 %11, %13
  %15 = load i64, ptr %5, align 8
  %16 = add i64 %14, %15
  ret i64 %16
}

; Function Attrs: mustprogress nounwind uwtable
define linkonce_odr hidden noundef i32 @_ZNK5clang15ConcreteTypeLocINS_13UnqualTypeLocENS_29HLSLAttributedResourceTypeLocENS_26HLSLAttributedResourceTypeENS_29HLSLAttributedResourceLocInfoEE16getNextTypeAlignENS_8QualTypeE(ptr noundef nonnull align 8 dereferenceable(16) %0, i64 %1) #0 comdat align 2 {
  %3 = alloca %"class.clang::QualType", align 8
  %4 = alloca ptr, align 8
  %5 = alloca %"class.clang::QualType", align 8
  %6 = getelementptr inbounds nuw %"class.clang::QualType", ptr %3, i32 0, i32 0
  %7 = getelementptr inbounds nuw %"class.llvm::PointerIntPair", ptr %6, i32 0, i32 0
  %8 = getelementptr inbounds nuw %"struct.llvm::detail::PunnedPointer", ptr %7, i32 0, i32 0
  store i64 %1, ptr %8, align 8
  store ptr %0, ptr %4, align 8
  call void @llvm.memcpy.p0.p0.i64(ptr align 8 %5, ptr align 8 %3, i64 8, i1 false)
  %9 = getelementptr inbounds nuw %"class.clang::QualType", ptr %5, i32 0, i32 0
  %10 = getelementptr inbounds nuw %"class.llvm::PointerIntPair", ptr %9, i32 0, i32 0
  %11 = getelementptr inbounds nuw %"struct.llvm::detail::PunnedPointer", ptr %10, i32 0, i32 0
  %12 = load i64, ptr %11, align 8
  %13 = call noundef i32 @_ZN5clang7TypeLoc24getLocalAlignmentForTypeENS_8QualTypeE(i64 %12)
  ret i32 %13
}

; Function Attrs: mustprogress nounwind uwtable
define linkonce_odr hidden noundef i32 @_ZNK5clang15ConcreteTypeLocINS_13UnqualTypeLocENS_29HLSLAttributedResourceTypeLocENS_26HLSLAttributedResourceTypeENS_29HLSLAttributedResourceLocInfoEE21getExtraLocalDataSizeEv(ptr noundef nonnull align 8 dereferenceable(16) %0) #0 comdat align 2 {
  %2 = alloca ptr, align 8
  store ptr %0, ptr %2, align 8
  ret i32 0
}

; Function Attrs: mustprogress nounwind uwtable
define linkonce_odr hidden noundef i32 @_ZN4llvm7alignToIjjjEET1_T_T0_(i32 noundef %0, i32 noundef %1) #0 comdat {
  %3 = alloca i32, align 4
  %4 = alloca i32, align 4
  %5 = alloca i32, align 4
  store i32 %0, ptr %3, align 4
  store i32 %1, ptr %4, align 4
  %6 = load i32, ptr %3, align 4
  %7 = load i32, ptr %4, align 4
  %8 = call noundef i32 @_ZN4llvm10divideCeilIjjjEET1_T_T0_(i32 noundef %6, i32 noundef %7)
  store i32 %8, ptr %5, align 4
  %9 = load i32, ptr %5, align 4
  %10 = load i32, ptr %4, align 4
  %11 = mul i32 %9, %10
  ret i32 %11
}

; Function Attrs: mustprogress nounwind uwtable
define linkonce_odr hidden noundef i32 @_ZNK5clang15ConcreteTypeLocINS_13UnqualTypeLocENS_29HLSLAttributedResourceTypeLocENS_26HLSLAttributedResourceTypeENS_29HLSLAttributedResourceLocInfoEE26getExtraLocalDataAlignmentEv(ptr noundef nonnull align 8 dereferenceable(16) %0) #0 comdat align 2 {
  %2 = alloca ptr, align 8
  store ptr %0, ptr %2, align 8
  ret i32 1
}

; Function Attrs: mustprogress nounwind uwtable
define linkonce_odr hidden noundef ptr @_ZN4llvm8CastInfoIN5clang26HLSLAttributedResourceTypeEPKNS1_4TypeEvE6doCastERKS5_(ptr noundef nonnull align 8 dereferenceable(8) %0) #0 comdat align 2 {
  %2 = alloca ptr, align 8
  store ptr %0, ptr %2, align 8
  %3 = load ptr, ptr %2, align 8
  %4 = load ptr, ptr %3, align 8
  %5 = call noundef ptr @_ZN4llvm16cast_convert_valIN5clang26HLSLAttributedResourceTypeEPKNS1_4TypeES5_E4doitES5_(ptr noundef %4)
  ret ptr %5
}

; Function Attrs: mustprogress nounwind uwtable
define linkonce_odr hidden noundef ptr @_ZNK5clang8QualType14getAsOpaquePtrEv(ptr noundef nonnull align 8 dereferenceable(8) %0) #0 comdat align 2 {
  %2 = alloca ptr, align 8
  store ptr %0, ptr %2, align 8
  %3 = load ptr, ptr %2, align 8
  %4 = getelementptr inbounds nuw %"class.clang::QualType", ptr %3, i32 0, i32 0
  %5 = call noundef ptr @_ZNK4llvm14PointerIntPairINS_12PointerUnionIJPKN5clang4TypeEPKNS2_8ExtQualsEEEELj3EjNS_21PointerLikeTypeTraitsIS9_EENS_18PointerIntPairInfoIS9_Lj3ESB_EEE14getOpaqueValueEv(ptr noundef nonnull align 8 dereferenceable(8) %4)
  ret ptr %5
}

; Function Attrs: mustprogress nounwind uwtable
define linkonce_odr hidden noundef i64 @_ZN4llvm7alignToImjmEET1_T_T0_(i64 noundef %0, i32 noundef %1) #0 comdat {
  %3 = alloca i64, align 8
  %4 = alloca i32, align 4
  %5 = alloca i64, align 8
  store i64 %0, ptr %3, align 8
  store i32 %1, ptr %4, align 4
  %6 = load i64, ptr %3, align 8
  %7 = load i32, ptr %4, align 4
  %8 = call noundef i64 @_ZN4llvm10divideCeilImjmEET1_T_T0_(i64 noundef %6, i32 noundef %7)
  store i64 %8, ptr %5, align 8
  %9 = load i64, ptr %5, align 8
  %10 = load i32, ptr %4, align 4
  %11 = zext i32 %10 to i64
  %12 = mul i64 %9, %11
  ret i64 %12
}

; Function Attrs: mustprogress nounwind uwtable
define linkonce_odr hidden noundef i32 @_ZNK5clang15ConcreteTypeLocINS_13UnqualTypeLocENS_29HLSLAttributedResourceTypeLocENS_26HLSLAttributedResourceTypeENS_29HLSLAttributedResourceLocInfoEE16getNextTypeAlignEv(ptr noundef nonnull align 8 dereferenceable(16) %0) #0 comdat align 2 {
  %2 = alloca ptr, align 8
  %3 = alloca %"class.clang::QualType", align 8
  store ptr %0, ptr %2, align 8
  %4 = load ptr, ptr %2, align 8
  %5 = call noundef ptr @_ZNK5clang15ConcreteTypeLocINS_13UnqualTypeLocENS_29HLSLAttributedResourceTypeLocENS_26HLSLAttributedResourceTypeENS_29HLSLAttributedResourceLocInfoEE9asDerivedEv(ptr noundef nonnull align 8 dereferenceable(16) %4)
  %6 = call i64 @_ZNK5clang29HLSLAttributedResourceTypeLoc12getInnerTypeEv(ptr noundef nonnull align 8 dereferenceable(16) %5)
  %7 = getelementptr inbounds nuw %"class.clang::QualType", ptr %3, i32 0, i32 0
  %8 = getelementptr inbounds nuw %"class.llvm::PointerIntPair", ptr %7, i32 0, i32 0
  %9 = getelementptr inbounds nuw %"struct.llvm::detail::PunnedPointer", ptr %8, i32 0, i32 0
  store i64 %6, ptr %9, align 8
  %10 = getelementptr inbounds nuw %"class.clang::QualType", ptr %3, i32 0, i32 0
  %11 = getelementptr inbounds nuw %"class.llvm::PointerIntPair", ptr %10, i32 0, i32 0
  %12 = getelementptr inbounds nuw %"struct.llvm::detail::PunnedPointer", ptr %11, i32 0, i32 0
  %13 = load i64, ptr %12, align 8
  %14 = call noundef i32 @_ZNK5clang15ConcreteTypeLocINS_13UnqualTypeLocENS_29HLSLAttributedResourceTypeLocENS_26HLSLAttributedResourceTypeENS_29HLSLAttributedResourceLocInfoEE16getNextTypeAlignENS_8QualTypeE(ptr noundef nonnull align 8 dereferenceable(16) %4, i64 %13)
  ret i32 %14
}

; Function Attrs: mustprogress nounwind uwtable
define linkonce_odr hidden noundef i32 @_ZNK5clang15ConcreteTypeLocINS_13UnqualTypeLocENS_29HLSLAttributedResourceTypeLocENS_26HLSLAttributedResourceTypeENS_29HLSLAttributedResourceLocInfoEE16getLocalDataSizeEv(ptr noundef nonnull align 8 dereferenceable(16) %0) #0 comdat align 2 {
  %2 = alloca ptr, align 8
  %3 = alloca i32, align 4
  %4 = alloca i32, align 4
  store ptr %0, ptr %2, align 8
  %5 = load ptr, ptr %2, align 8
  store i32 8, ptr %3, align 4
  %6 = call noundef ptr @_ZNK5clang15ConcreteTypeLocINS_13UnqualTypeLocENS_29HLSLAttributedResourceTypeLocENS_26HLSLAttributedResourceTypeENS_29HLSLAttributedResourceLocInfoEE9asDerivedEv(ptr noundef nonnull align 8 dereferenceable(16) %5)
  %7 = call noundef i32 @_ZNK5clang15ConcreteTypeLocINS_13UnqualTypeLocENS_29HLSLAttributedResourceTypeLocENS_26HLSLAttributedResourceTypeENS_29HLSLAttributedResourceLocInfoEE26getExtraLocalDataAlignmentEv(ptr noundef nonnull align 8 dereferenceable(16) %6)
  store i32 %7, ptr %4, align 4
  %8 = load i32, ptr %3, align 4
  %9 = load i32, ptr %4, align 4
  %10 = call noundef i32 @_ZN4llvm7alignToIjjjEET1_T_T0_(i32 noundef %8, i32 noundef %9)
  store i32 %10, ptr %3, align 4
  %11 = call noundef ptr @_ZNK5clang15ConcreteTypeLocINS_13UnqualTypeLocENS_29HLSLAttributedResourceTypeLocENS_26HLSLAttributedResourceTypeENS_29HLSLAttributedResourceLocInfoEE9asDerivedEv(ptr noundef nonnull align 8 dereferenceable(16) %5)
  %12 = call noundef i32 @_ZNK5clang15ConcreteTypeLocINS_13UnqualTypeLocENS_29HLSLAttributedResourceTypeLocENS_26HLSLAttributedResourceTypeENS_29HLSLAttributedResourceLocInfoEE21getExtraLocalDataSizeEv(ptr noundef nonnull align 8 dereferenceable(16) %11)
  %13 = load i32, ptr %3, align 4
  %14 = add i32 %13, %12
  store i32 %14, ptr %3, align 4
  %15 = load i32, ptr %3, align 4
  ret i32 %15
}

; Function Attrs: mustprogress nounwind uwtable
define linkonce_odr hidden noundef ptr @_ZN4llvm4castIN5clang26HLSLAttributedResourceTypeEKNS1_4TypeEEEDcPT0_(ptr noundef %0) #0 comdat {
  %2 = alloca ptr, align 8
  store ptr %0, ptr %2, align 8
  %3 = call noundef ptr @_ZN4llvm8CastInfoIN5clang26HLSLAttributedResourceTypeEPKNS1_4TypeEvE6doCastERKS5_(ptr noundef nonnull align 8 dereferenceable(8) %2)
  ret ptr %3
}

; Function Attrs: mustprogress nounwind uwtable
define linkonce_odr hidden noundef ptr @_ZNK5clang13UnqualTypeLoc10getTypePtrEv(ptr noundef nonnull align 8 dereferenceable(16) %0) #0 comdat align 2 {
  %2 = alloca ptr, align 8
  store ptr %0, ptr %2, align 8
  %3 = load ptr, ptr %2, align 8
  %4 = getelementptr inbounds nuw %"class.clang::TypeLoc", ptr %3, i32 0, i32 0
  %5 = load ptr, ptr %4, align 8
  ret ptr %5
}

; Function Attrs: mustprogress nounwind uwtable
define linkonce_odr hidden void @_ZN5clang7TypeLocC2ENS_8QualTypeEPv(ptr noundef nonnull align 8 dereferenceable(16) %0, i64 %1, ptr noundef %2) unnamed_addr #0 comdat align 2 {
  %4 = alloca %"class.clang::QualType", align 8
  %5 = alloca ptr, align 8
  %6 = alloca ptr, align 8
  %7 = getelementptr inbounds nuw %"class.clang::QualType", ptr %4, i32 0, i32 0
  %8 = getelementptr inbounds nuw %"class.llvm::PointerIntPair", ptr %7, i32 0, i32 0
  %9 = getelementptr inbounds nuw %"struct.llvm::detail::PunnedPointer", ptr %8, i32 0, i32 0
  store i64 %1, ptr %9, align 8
  store ptr %0, ptr %5, align 8
  store ptr %2, ptr %6, align 8
  %10 = load ptr, ptr %5, align 8
  %11 = getelementptr inbounds nuw %"class.clang::TypeLoc", ptr %10, i32 0, i32 0
  %12 = call noundef ptr @_ZNK5clang8QualType14getAsOpaquePtrEv(ptr noundef nonnull align 8 dereferenceable(8) %4)
  store ptr %12, ptr %11, align 8
  %13 = getelementptr inbounds nuw %"class.clang::TypeLoc", ptr %10, i32 0, i32 1
  %14 = load ptr, ptr %6, align 8
  store ptr %14, ptr %13, align 8
  ret void
}

; Function Attrs: mustprogress nounwind uwtable
define linkonce_odr hidden noundef ptr @_ZNK5clang15ConcreteTypeLocINS_13UnqualTypeLocENS_29HLSLAttributedResourceTypeLocENS_26HLSLAttributedResourceTypeENS_29HLSLAttributedResourceLocInfoEE15getNonLocalDataEv(ptr noundef nonnull align 8 dereferenceable(16) %0) #0 comdat align 2 {
  %2 = alloca ptr, align 8
  %3 = alloca i64, align 8
  store ptr %0, ptr %2, align 8
  %4 = load ptr, ptr %2, align 8
  %5 = getelementptr inbounds nuw %"class.clang::TypeLoc", ptr %4, i32 0, i32 1
  %6 = load ptr, ptr %5, align 8
  %7 = ptrtoint ptr %6 to i64
  store i64 %7, ptr %3, align 8
  %8 = call noundef ptr @_ZNK5clang15ConcreteTypeLocINS_13UnqualTypeLocENS_29HLSLAttributedResourceTypeLocENS_26HLSLAttributedResourceTypeENS_29HLSLAttributedResourceLocInfoEE9asDerivedEv(ptr noundef nonnull align 8 dereferenceable(16) %4)
  %9 = call noundef i32 @_ZNK5clang15ConcreteTypeLocINS_13UnqualTypeLocENS_29HLSLAttributedResourceTypeLocENS_26HLSLAttributedResourceTypeENS_29HLSLAttributedResourceLocInfoEE16getLocalDataSizeEv(ptr noundef nonnull align 8 dereferenceable(16) %8)
  %10 = zext i32 %9 to i64
  %11 = load i64, ptr %3, align 8
  %12 = add i64 %11, %10
  store i64 %12, ptr %3, align 8
  %13 = load i64, ptr %3, align 8
  %14 = call noundef i32 @_ZNK5clang15ConcreteTypeLocINS_13UnqualTypeLocENS_29HLSLAttributedResourceTypeLocENS_26HLSLAttributedResourceTypeENS_29HLSLAttributedResourceLocInfoEE16getNextTypeAlignEv(ptr noundef nonnull align 8 dereferenceable(16) %4)
  %15 = call noundef i64 @_ZN4llvm7alignToImjmEET1_T_T0_(i64 noundef %13, i32 noundef %14)
  store i64 %15, ptr %3, align 8
  %16 = load i64, ptr %3, align 8
  %17 = inttoptr i64 %16 to ptr
  ret ptr %17
}

; Function Attrs: mustprogress nounwind uwtable
define linkonce_odr hidden i64 @_ZNK5clang26HLSLAttributedResourceType14getWrappedTypeEv(ptr noundef nonnull align 16 dereferenceable(50) %0) #0 comdat align 2 {
  %2 = alloca %"class.clang::QualType", align 8
  %3 = alloca ptr, align 8
  store ptr %0, ptr %3, align 8
  %4 = load ptr, ptr %3, align 8
  %5 = getelementptr inbounds nuw %"class.clang::HLSLAttributedResourceType", ptr %4, i32 0, i32 2
  call void @llvm.memcpy.p0.p0.i64(ptr align 8 %2, ptr align 16 %5, i64 8, i1 false)
  %6 = getelementptr inbounds nuw %"class.clang::QualType", ptr %2, i32 0, i32 0
  %7 = getelementptr inbounds nuw %"class.llvm::PointerIntPair", ptr %6, i32 0, i32 0
  %8 = getelementptr inbounds nuw %"struct.llvm::detail::PunnedPointer", ptr %7, i32 0, i32 0
  %9 = load i64, ptr %8, align 8
  ret i64 %9
}

; Function Attrs: mustprogress nounwind uwtable
define linkonce_odr hidden noundef ptr @_ZNK5clang15ConcreteTypeLocINS_13UnqualTypeLocENS_29HLSLAttributedResourceTypeLocENS_26HLSLAttributedResourceTypeENS_29HLSLAttributedResourceLocInfoEE10getTypePtrEv(ptr noundef nonnull align 8 dereferenceable(16) %0) #0 comdat align 2 {
  %2 = alloca ptr, align 8
  store ptr %0, ptr %2, align 8
  %3 = load ptr, ptr %2, align 8
  %4 = call noundef ptr @_ZNK5clang13UnqualTypeLoc10getTypePtrEv(ptr noundef nonnull align 8 dereferenceable(16) %3)
  %5 = call noundef ptr @_ZN4llvm4castIN5clang26HLSLAttributedResourceTypeEKNS1_4TypeEEEDcPT0_(ptr noundef %4)
  ret ptr %5
}

; Function Attrs: mustprogress nounwind uwtable
define linkonce_odr hidden { ptr, ptr } @_ZNK5clang15ConcreteTypeLocINS_13UnqualTypeLocENS_29HLSLAttributedResourceTypeLocENS_26HLSLAttributedResourceTypeENS_29HLSLAttributedResourceLocInfoEE14getNextTypeLocENS_8QualTypeE(ptr noundef nonnull align 8 dereferenceable(16) %0, i64 %1) #0 comdat align 2 {
  %3 = alloca %"class.clang::TypeLoc", align 8
  %4 = alloca %"class.clang::QualType", align 8
  %5 = alloca ptr, align 8
  %6 = alloca %"class.clang::QualType", align 8
  %7 = getelementptr inbounds nuw %"class.clang::QualType", ptr %4, i32 0, i32 0
  %8 = getelementptr inbounds nuw %"class.llvm::PointerIntPair", ptr %7, i32 0, i32 0
  %9 = getelementptr inbounds nuw %"struct.llvm::detail::PunnedPointer", ptr %8, i32 0, i32 0
  store i64 %1, ptr %9, align 8
  store ptr %0, ptr %5, align 8
  %10 = load ptr, ptr %5, align 8
  call void @llvm.memcpy.p0.p0.i64(ptr align 8 %6, ptr align 8 %4, i64 8, i1 false)
  %11 = call noundef ptr @_ZNK5clang15ConcreteTypeLocINS_13UnqualTypeLocENS_29HLSLAttributedResourceTypeLocENS_26HLSLAttributedResourceTypeENS_29HLSLAttributedResourceLocInfoEE15getNonLocalDataEv(ptr noundef nonnull align 8 dereferenceable(16) %10)
  %12 = getelementptr inbounds nuw %"class.clang::QualType", ptr %6, i32 0, i32 0
  %13 = getelementptr inbounds nuw %"class.llvm::PointerIntPair", ptr %12, i32 0, i32 0
  %14 = getelementptr inbounds nuw %"struct.llvm::detail::PunnedPointer", ptr %13, i32 0, i32 0
  %15 = load i64, ptr %14, align 8
  call void @_ZN5clang7TypeLocC2ENS_8QualTypeEPv(ptr noundef nonnull align 8 dereferenceable(16) %3, i64 %15, ptr noundef %11)
  %16 = load { ptr, ptr }, ptr %3, align 8
  ret { ptr, ptr } %16
}

; Function Attrs: mustprogress nounwind uwtable
define linkonce_odr hidden i64 @_ZNK5clang29HLSLAttributedResourceTypeLoc12getInnerTypeEv(ptr noundef nonnull align 8 dereferenceable(16) %0) #0 comdat align 2 {
  %2 = alloca %"class.clang::QualType", align 8
  %3 = alloca ptr, align 8
  store ptr %0, ptr %3, align 8
  %4 = load ptr, ptr %3, align 8
  %5 = call noundef ptr @_ZNK5clang15ConcreteTypeLocINS_13UnqualTypeLocENS_29HLSLAttributedResourceTypeLocENS_26HLSLAttributedResourceTypeENS_29HLSLAttributedResourceLocInfoEE10getTypePtrEv(ptr noundef nonnull align 8 dereferenceable(16) %4)
  %6 = call i64 @_ZNK5clang26HLSLAttributedResourceType14getWrappedTypeEv(ptr noundef nonnull align 16 dereferenceable(50) %5)
  %7 = getelementptr inbounds nuw %"class.clang::QualType", ptr %2, i32 0, i32 0
  %8 = getelementptr inbounds nuw %"class.llvm::PointerIntPair", ptr %7, i32 0, i32 0
  %9 = getelementptr inbounds nuw %"struct.llvm::detail::PunnedPointer", ptr %8, i32 0, i32 0
  store i64 %6, ptr %9, align 8
  %10 = getelementptr inbounds nuw %"class.clang::QualType", ptr %2, i32 0, i32 0
  %11 = getelementptr inbounds nuw %"class.llvm::PointerIntPair", ptr %10, i32 0, i32 0
  %12 = getelementptr inbounds nuw %"struct.llvm::detail::PunnedPointer", ptr %11, i32 0, i32 0
  %13 = load i64, ptr %12, align 8
  ret i64 %13
}

; Function Attrs: mustprogress nounwind uwtable
define linkonce_odr hidden noundef ptr @_ZNK5clang15ConcreteTypeLocINS_13UnqualTypeLocENS_29HLSLAttributedResourceTypeLocENS_26HLSLAttributedResourceTypeENS_29HLSLAttributedResourceLocInfoEE9asDerivedEv(ptr noundef nonnull align 8 dereferenceable(16) %0) #0 comdat align 2 {
  %2 = alloca ptr, align 8
  store ptr %0, ptr %2, align 8
  %3 = load ptr, ptr %2, align 8
  ret ptr %3
}

; Function Attrs: mustprogress nounwind uwtable
define linkonce_odr hidden { ptr, ptr } @_ZNK5clang15ConcreteTypeLocINS_13UnqualTypeLocENS_29HLSLAttributedResourceTypeLocENS_26HLSLAttributedResourceTypeENS_29HLSLAttributedResourceLocInfoEE14getNextTypeLocEv(ptr noundef nonnull align 8 dereferenceable(16) %0) #0 comdat align 2 {
  %2 = alloca %"class.clang::TypeLoc", align 8
  %3 = alloca ptr, align 8
  %4 = alloca %"class.clang::QualType", align 8
  store ptr %0, ptr %3, align 8
  %5 = load ptr, ptr %3, align 8
  %6 = call noundef ptr @_ZNK5clang15ConcreteTypeLocINS_13UnqualTypeLocENS_29HLSLAttributedResourceTypeLocENS_26HLSLAttributedResourceTypeENS_29HLSLAttributedResourceLocInfoEE9asDerivedEv(ptr noundef nonnull align 8 dereferenceable(16) %5)
  %7 = call i64 @_ZNK5clang29HLSLAttributedResourceTypeLoc12getInnerTypeEv(ptr noundef nonnull align 8 dereferenceable(16) %6)
  %8 = getelementptr inbounds nuw %"class.clang::QualType", ptr %4, i32 0, i32 0
  %9 = getelementptr inbounds nuw %"class.llvm::PointerIntPair", ptr %8, i32 0, i32 0
  %10 = getelementptr inbounds nuw %"struct.llvm::detail::PunnedPointer", ptr %9, i32 0, i32 0
  store i64 %7, ptr %10, align 8
  %11 = getelementptr inbounds nuw %"class.clang::QualType", ptr %4, i32 0, i32 0
  %12 = getelementptr inbounds nuw %"class.llvm::PointerIntPair", ptr %11, i32 0, i32 0
  %13 = getelementptr inbounds nuw %"struct.llvm::detail::PunnedPointer", ptr %12, i32 0, i32 0
  %14 = load i64, ptr %13, align 8
  %15 = call { ptr, ptr } @_ZNK5clang15ConcreteTypeLocINS_13UnqualTypeLocENS_29HLSLAttributedResourceTypeLocENS_26HLSLAttributedResourceTypeENS_29HLSLAttributedResourceLocInfoEE14getNextTypeLocENS_8QualTypeE(ptr noundef nonnull align 8 dereferenceable(16) %5, i64 %14)
  %16 = getelementptr inbounds nuw { ptr, ptr }, ptr %2, i32 0, i32 0
  %17 = extractvalue { ptr, ptr } %15, 0
  store ptr %17, ptr %16, align 8
  %18 = getelementptr inbounds nuw { ptr, ptr }, ptr %2, i32 0, i32 1
  %19 = extractvalue { ptr, ptr } %15, 1
  store ptr %19, ptr %18, align 8
  %20 = load { ptr, ptr }, ptr %2, align 8
  ret { ptr, ptr } %20
}

; Function Attrs: mustprogress nounwind uwtable
define internal { ptr, ptr } @_ZN12_GLOBAL__N_17NextLoc34VisitHLSLAttributedResourceTypeLocEN5clang29HLSLAttributedResourceTypeLocE(ptr noundef nonnull align 1 dereferenceable(1) %0, ptr %1, ptr %2) #0 align 2 {
  %4 = alloca %"class.clang::TypeLoc", align 8
  %5 = alloca %"class.clang::HLSLAttributedResourceTypeLoc", align 8
  %6 = alloca ptr, align 8
  %7 = getelementptr inbounds nuw { ptr, ptr }, ptr %5, i32 0, i32 0
  store ptr %1, ptr %7, align 8
  %8 = getelementptr inbounds nuw { ptr, ptr }, ptr %5, i32 0, i32 1
  store ptr %2, ptr %8, align 8
  store ptr %0, ptr %6, align 8
  %9 = call { ptr, ptr } @_ZNK5clang15ConcreteTypeLocINS_13UnqualTypeLocENS_29HLSLAttributedResourceTypeLocENS_26HLSLAttributedResourceTypeENS_29HLSLAttributedResourceLocInfoEE14getNextTypeLocEv(ptr noundef nonnull align 8 dereferenceable(16) %5)
  %10 = getelementptr inbounds nuw { ptr, ptr }, ptr %4, i32 0, i32 0
  %11 = extractvalue { ptr, ptr } %9, 0
  store ptr %11, ptr %10, align 8
  %12 = getelementptr inbounds nuw { ptr, ptr }, ptr %4, i32 0, i32 1
  %13 = extractvalue { ptr, ptr } %9, 1
  store ptr %13, ptr %12, align 8
  %14 = load { ptr, ptr }, ptr %4, align 8
  ret { ptr, ptr } %14
}